; Function Attrs: nofree norecurse nosync nounwind memory(argmem: readwrite) uwtable
define internal void @blend_softlight_32bit(ptr noundef readonly captures(none) %0, i64 noundef %1, ptr noundef readonly captures(none) %2, i64 noundef %3, ptr noundef writeonly captures(none) %4, i64 noundef %5, i64 noundef %6, i64 noundef %7, ptr noundef readonly captures(none) %8, ptr readnone captures(none) %9) #6 {
  %11 = getelementptr inbounds nuw i8, ptr %8, i64 8
  %12 = load double, ptr %11, align 8, !tbaa !70
  %13 = fptrunc nsz double %12 to float
  %14 = lshr i64 %5, 2
  %15 = lshr i64 %1, 2
  %16 = lshr i64 %3, 2
  %17 = icmp sgt i64 %7, 0
  %18 = icmp sgt i64 %6, 0
  %or.cond = and i1 %17, %18
  br i1 %or.cond, label %.preheader.us, label %._crit_edge45

.preheader.us:                                    ; preds = %10, %._crit_edge.us
  %indvars.iv49 = phi i64 [ %indvars.iv.next50, %._crit_edge.us ], [ 0, %10 ]
  %.03643.us = phi ptr [ %32, %._crit_edge.us ], [ %4, %10 ]
  %.03742.us = phi ptr [ %34, %._crit_edge.us ], [ %2, %10 ]
  %.03841.us = phi ptr [ %33, %._crit_edge.us ], [ %0, %10 ]
  br label %19

19:                                               ; preds = %.preheader.us, %19
  %indvars.iv = phi i64 [ 0, %.preheader.us ], [ %indvars.iv.next, %19 ]
  %20 = getelementptr inbounds nuw float, ptr %.03841.us, i64 %indvars.iv
  %21 = load float, ptr %20, align 4, !tbaa !81
  %22 = fmul nsz float %21, %21
  %23 = getelementptr inbounds nuw float, ptr %.03742.us, i64 %indvars.iv
  %24 = load float, ptr %23, align 4, !tbaa !81
  %25 = fsub nsz float 1.000000e+00, %21
  %26 = fmul nsz float %21, %25
  %27 = fmul nsz float %24, %26
  %28 = tail call nsz float @llvm.fmuladd.f32(float %27, float 2.000000e+00, float %22)
  %29 = fsub nsz float %28, %21
  %30 = tail call nsz float @llvm.fmuladd.f32(float %29, float %13, float %21)
  %31 = getelementptr inbounds nuw float, ptr %.03643.us, i64 %indvars.iv
  store float %30, ptr %31, align 4, !tbaa !81
  %indvars.iv.next = add nuw nsw i64 %indvars.iv, 1
  %exitcond.not = icmp eq i64 %indvars.iv.next, %6
  br i1 %exitcond.not, label %._crit_edge.us, label %19, !llvm.loop !622

._crit_edge.us:                                   ; preds = %19
  %32 = getelementptr inbounds nuw float, ptr %.03643.us, i64 %14
  %33 = getelementptr inbounds nuw float, ptr %.03841.us, i64 %15
  %34 = getelementptr inbounds nuw float, ptr %.03742.us, i64 %16
  %indvars.iv.next50 = add nuw nsw i64 %indvars.iv49, 1
  %exitcond52.not = icmp eq i64 %indvars.iv.next50, %7
  br i1 %exitcond52.not, label %._crit_edge45, label %.preheader.us, !llvm.loop !623

._crit_edge45:                                    ; preds = %._crit_edge.us, %10
  ret void
}